target datalayout = "e-m:e-p270:32:32-p271:32:32-p272:64:64-i64:64-i128:128-f80:128-n8:16:32:64-S128"
target triple = "x86_64-pc-linux-gnu"

%struct.SDL_Keyboard = type { ptr, i16, [512 x i8], [512 x i8], ptr, i32, i8, i64, i32 }
%struct.SDL_Window = type { i32, ptr, ptr, i32, i32, i32, i32, i32, i32, i32, i32, float, float, i32, i32, i64, i64, float, i8, i8, i32, i32, %struct.SDL_Rect, %struct.SDL_Rect, %struct.SDL_Rect, i8, i8, i8, %struct.SDL_DisplayMode, %struct.SDL_DisplayMode, %struct.SDL_HDROutputProperties, float, ptr, i8, i8, i8, i8, i8, i8, i8, i8, i8, i32, i32, i32, i32, %struct.SDL_Rect, i32, i8, %struct.SDL_Rect, i32, %struct.SDL_Rect, ptr, ptr, i32, float, i32, i32, ptr, ptr, ptr, ptr, ptr, ptr, ptr, ptr, ptr }
%struct.SDL_DisplayMode = type { i32, i32, i32, i32, float, float, i32, i32, ptr }
%struct.SDL_HDROutputProperties = type { float, float }
%struct.SDL_Rect = type { i32, i32, i32, i32 }
%struct.SDL_Mouse = type { ptr, ptr, ptr, ptr, ptr, ptr, ptr, ptr, ptr, ptr, ptr, ptr, ptr, ptr, i8, float, float, ptr, float, float, float, float, float, float, float, float, double, double, i8, i8, i8, i8, i8, i8, i8, i8, i64, i8, float, i8, float, i8, i32, i32, i8, i8, i8, i8, i8, i8, i8, i8, i8, ptr, i32, ptr, ptr, ptr, ptr, i8, ptr }
%struct.SDL_VideoDevice = type { ptr, ptr, ptr, ptr, ptr, ptr, ptr, ptr, ptr, ptr, ptr, ptr, ptr, ptr, ptr, ptr, ptr, ptr, ptr, ptr, ptr, ptr, ptr, ptr, ptr, ptr, ptr, ptr, ptr, ptr, ptr, ptr, ptr, ptr, ptr, ptr, ptr, ptr, ptr, ptr, ptr, ptr, ptr, ptr, ptr, ptr, ptr, ptr, ptr, ptr, ptr, ptr, ptr, ptr, ptr, ptr, ptr, ptr, ptr, ptr, ptr, ptr, ptr, ptr, ptr, ptr, ptr, ptr, ptr, ptr, ptr, ptr, ptr, ptr, ptr, ptr, ptr, ptr, ptr, ptr, ptr, ptr, ptr, ptr, ptr, ptr, ptr, ptr, ptr, ptr, ptr, ptr, ptr, ptr, ptr, ptr, ptr, i64, i8, i8, i8, ptr, i32, ptr, %struct.SDL_Rect, ptr, ptr, i32, ptr, ptr, ptr, ptr, i64, ptr, i8, i32, i32, %struct.anon, ptr, ptr, ptr, ptr, ptr, ptr, %struct.SDL_AtomicInt, %struct.SDL_AtomicInt, i8, %struct.anon.0, ptr, ptr, ptr, ptr, ptr }
%struct.anon = type { i32, i32, i32, i32, i32, i32, i32, i32, i32, i32, i32, i32, i32, i32, i32, i32, i32, i32, i32, i32, i32, i32, i32, i32, i32, i32, i32, i32, i32, [256 x i8], ptr }
%struct.SDL_AtomicInt = type { i32 }
%struct.anon.0 = type { ptr, ptr, i32, [256 x i8], ptr }

@SDL_keyboard = internal global %struct.SDL_Keyboard zeroinitializer, align 8
@.str.3 = private unnamed_addr constant [15 x i8] c"Invalid window\00", align 1

; Function Attrs: nounwind uwtable
define hidden zeroext i1 @SDL_SendKeyboardKey(i64 noundef %0, i32 noundef %1, i32 noundef %2, i32 noundef %3, i1 noundef zeroext %4) #0 {
  %6 = alloca i64, align 8
  %7 = alloca i32, align 4
  %8 = alloca i32, align 4
  %9 = alloca i32, align 4
  %10 = alloca i8, align 1
  store i64 %0, ptr %6, align 8
  store i32 %1, ptr %7, align 4
  store i32 %2, ptr %8, align 4
  store i32 %3, ptr %9, align 4
  %11 = zext i1 %4 to i8
  store i8 %11, ptr %10, align 1
  %12 = load i64, ptr %6, align 8
  %13 = load i32, ptr %7, align 4
  %14 = load i32, ptr %8, align 4
  %15 = load i32, ptr %9, align 4
  %16 = load i8, ptr %10, align 1, !range !3, !noundef !4
  %17 = trunc i8 %16 to i1
  %18 = call zeroext i1 @SDL_SendKeyboardKeyInternal(i64 noundef %12, i32 noundef 1, i32 noundef %13, i32 noundef %14, i32 noundef %15, i1 noundef zeroext %17)
  ret i1 %18
}

; Function Attrs: nounwind uwtable
define hidden void @SDL_ResetKeyboard_REAL() #0 {
  %1 = alloca ptr, align 8
  %2 = alloca i32, align 4
  call void @llvm.lifetime.start.p0(i64 8, ptr %1) #6
  store ptr @SDL_keyboard, ptr %1, align 8
  call void @llvm.lifetime.start.p0(i64 4, ptr %2) #6
  store i32 0, ptr %2, align 4
  br label %3

3:                                                ; preds = %18, %0
  %4 = load i32, ptr %2, align 4
  %5 = icmp slt i32 %4, 512
  br i1 %5, label %6, label %21

6:                                                ; preds = %3
  %7 = load ptr, ptr %1, align 8
  %8 = getelementptr inbounds nuw %struct.SDL_Keyboard, ptr %7, i32 0, i32 3
  %9 = load i32, ptr %2, align 4
  %10 = sext i32 %9 to i64
  %11 = getelementptr inbounds [512 x i8], ptr %8, i64 0, i64 %10
  %12 = load i8, ptr %11, align 1, !range !3, !noundef !4
  %13 = trunc i8 %12 to i1
  br i1 %13, label %14, label %17

14:                                               ; preds = %6
  %15 = load i32, ptr %2, align 4
  %16 = call zeroext i1 @SDL_SendKeyboardKey(i64 noundef 0, i32 noundef 0, i32 noundef 0, i32 noundef %15, i1 noundef zeroext false)
  br label %17

17:                                               ; preds = %14, %6
  br label %18

18:                                               ; preds = %17
  %19 = load i32, ptr %2, align 4
  %20 = add nsw i32 %19, 1
  store i32 %20, ptr %2, align 4
  br label %3, !llvm.loop !8

21:                                               ; preds = %3
  call void @llvm.lifetime.end.p0(i64 4, ptr %2) #6
  call void @llvm.lifetime.end.p0(i64 8, ptr %1) #6
  ret void
}

; Function Attrs: nounwind uwtable
define hidden zeroext i1 @SDL_SetKeyboardFocus(ptr noundef %0) #0 {
  %2 = alloca i1, align 1
  %3 = alloca ptr, align 8
  %4 = alloca ptr, align 8
  %5 = alloca ptr, align 8
  %6 = alloca ptr, align 8
  %7 = alloca i32, align 4
  %8 = alloca ptr, align 8
  %9 = alloca float, align 4
  %10 = alloca float, align 4
  store ptr %0, ptr %3, align 8
  call void @llvm.lifetime.start.p0(i64 8, ptr %4) #6
  %11 = call ptr @SDL_GetVideoDevice()
  store ptr %11, ptr %4, align 8
  call void @llvm.lifetime.start.p0(i64 8, ptr %5) #6
  store ptr @SDL_keyboard, ptr %5, align 8
  call void @llvm.lifetime.start.p0(i64 8, ptr %6) #6
  %12 = call ptr @SDL_GetMouse()
  store ptr %12, ptr %6, align 8
  %13 = load ptr, ptr %3, align 8
  %14 = icmp ne ptr %13, null
  br i1 %14, label %15, label %26

15:                                               ; preds = %1
  %16 = load ptr, ptr %3, align 8
  %17 = call zeroext i1 @SDL_ObjectValid(ptr noundef %16, i32 noundef 1)
  br i1 %17, label %18, label %23

18:                                               ; preds = %15
  %19 = load ptr, ptr %3, align 8
  %20 = getelementptr inbounds nuw %struct.SDL_Window, ptr %19, i32 0, i32 40
  %21 = load i8, ptr %20, align 1, !range !3, !noundef !4
  %22 = trunc i8 %21 to i1
  br i1 %22, label %23, label %25

23:                                               ; preds = %18, %15
  %24 = call zeroext i1 (ptr, ...) @SDL_SetError_REAL(ptr noundef @.str.3)
  store i1 %24, ptr %2, align 1
  store i32 1, ptr %7, align 4
  br label %152

25:                                               ; preds = %18
  br label %26

26:                                               ; preds = %25, %1
  %27 = load ptr, ptr %5, align 8
  %28 = getelementptr inbounds nuw %struct.SDL_Keyboard, ptr %27, i32 0, i32 0
  %29 = load ptr, ptr %28, align 8
  %30 = icmp ne ptr %29, null
  br i1 %30, label %31, label %71

31:                                               ; preds = %26
  %32 = load ptr, ptr %3, align 8
  %33 = icmp ne ptr %32, null
  br i1 %33, label %71, label %34

34:                                               ; preds = %31
  call void @SDL_ResetKeyboard_REAL()
  %35 = load ptr, ptr %6, align 8
  %36 = getelementptr inbounds nuw %struct.SDL_Mouse, ptr %35, i32 0, i32 29
  %37 = load i8, ptr %36, align 1, !range !3, !noundef !4
  %38 = trunc i8 %37 to i1
  br i1 %38, label %39, label %70

39:                                               ; preds = %34
  %40 = call zeroext i1 @SDL_SetRelativeMouseMode(i1 noundef zeroext false)
  call void @llvm.lifetime.start.p0(i64 8, ptr %8) #6
  %41 = load ptr, ptr %5, align 8
  %42 = getelementptr inbounds nuw %struct.SDL_Keyboard, ptr %41, i32 0, i32 0
  %43 = load ptr, ptr %42, align 8
  store ptr %43, ptr %8, align 8
  %44 = load ptr, ptr %8, align 8
  %45 = getelementptr inbounds nuw %struct.SDL_Window, ptr %44, i32 0, i32 15
  %46 = load i64, ptr %45, align 8
  %47 = and i64 %46, 64
  %48 = icmp ne i64 %47, 0
  br i1 %48, label %49, label %69

49:                                               ; preds = %39
  call void @llvm.lifetime.start.p0(i64 4, ptr %9) #6
  %50 = load ptr, ptr %8, align 8
  %51 = getelementptr inbounds nuw %struct.SDL_Window, ptr %50, i32 0, i32 3
  %52 = load i32, ptr %51, align 8
  %53 = sitofp i32 %52 to float
  %54 = load ptr, ptr %6, align 8
  %55 = getelementptr inbounds nuw %struct.SDL_Mouse, ptr %54, i32 0, i32 18
  %56 = load float, ptr %55, align 8
  %57 = fadd float %53, %56
  store float %57, ptr %9, align 4
  call void @llvm.lifetime.start.p0(i64 4, ptr %10) #6
  %58 = load ptr, ptr %8, align 8
  %59 = getelementptr inbounds nuw %struct.SDL_Window, ptr %58, i32 0, i32 4
  %60 = load i32, ptr %59, align 4
  %61 = sitofp i32 %60 to float
  %62 = load ptr, ptr %6, align 8
  %63 = getelementptr inbounds nuw %struct.SDL_Mouse, ptr %62, i32 0, i32 19
  %64 = load float, ptr %63, align 4
  %65 = fadd float %61, %64
  store float %65, ptr %10, align 4
  %66 = load float, ptr %9, align 4
  %67 = load float, ptr %10, align 4
  %68 = call zeroext i1 @SDL_WarpMouseGlobal_REAL(float noundef %66, float noundef %67)
  call void @llvm.lifetime.end.p0(i64 4, ptr %10) #6
  call void @llvm.lifetime.end.p0(i64 4, ptr %9) #6
  br label %69

69:                                               ; preds = %49, %39
  call void @llvm.lifetime.end.p0(i64 8, ptr %8) #6
  br label %70

70:                                               ; preds = %69, %34
  br label %71

71:                                               ; preds = %70, %31, %26
  %72 = load ptr, ptr %5, align 8
  %73 = getelementptr inbounds nuw %struct.SDL_Keyboard, ptr %72, i32 0, i32 0
  %74 = load ptr, ptr %73, align 8
  %75 = icmp ne ptr %74, null
  br i1 %75, label %76, label %110

76:                                               ; preds = %71
  %77 = load ptr, ptr %5, align 8
  %78 = getelementptr inbounds nuw %struct.SDL_Keyboard, ptr %77, i32 0, i32 0
  %79 = load ptr, ptr %78, align 8
  %80 = load ptr, ptr %3, align 8
  %81 = icmp ne ptr %79, %80
  br i1 %81, label %82, label %110

82:                                               ; preds = %76
  %83 = load ptr, ptr %5, align 8
  %84 = getelementptr inbounds nuw %struct.SDL_Keyboard, ptr %83, i32 0, i32 0
  %85 = load ptr, ptr %84, align 8
  %86 = call zeroext i1 @SDL_SendWindowEvent(ptr noundef %85, i32 noundef 527, i32 noundef 0, i32 noundef 0)
  %87 = load ptr, ptr %5, align 8
  %88 = getelementptr inbounds nuw %struct.SDL_Keyboard, ptr %87, i32 0, i32 0
  %89 = load ptr, ptr %88, align 8
  %90 = call zeroext i1 @SDL_TextInputActive_REAL(ptr noundef %89)
  br i1 %90, label %91, label %109

91:                                               ; preds = %82
  %92 = load ptr, ptr %4, align 8
  %93 = icmp ne ptr %92, null
  br i1 %93, label %94, label %108

94:                                               ; preds = %91
  %95 = load ptr, ptr %4, align 8
  %96 = getelementptr inbounds nuw %struct.SDL_VideoDevice, ptr %95, i32 0, i32 75
  %97 = load ptr, ptr %96, align 8
  %98 = icmp ne ptr %97, null
  br i1 %98, label %99, label %108

99:                                               ; preds = %94
  %100 = load ptr, ptr %4, align 8
  %101 = getelementptr inbounds nuw %struct.SDL_VideoDevice, ptr %100, i32 0, i32 75
  %102 = load ptr, ptr %101, align 8
  %103 = load ptr, ptr %4, align 8
  %104 = load ptr, ptr %5, align 8
  %105 = getelementptr inbounds nuw %struct.SDL_Keyboard, ptr %104, i32 0, i32 0
  %106 = load ptr, ptr %105, align 8
  %107 = call zeroext i1 %102(ptr noundef %103, ptr noundef %106)
  br label %108

108:                                              ; preds = %99, %94, %91
  br label %109

109:                                              ; preds = %108, %82
  br label %110

110:                                              ; preds = %109, %76, %71
  %111 = load ptr, ptr %3, align 8
  %112 = load ptr, ptr %5, align 8
  %113 = getelementptr inbounds nuw %struct.SDL_Keyboard, ptr %112, i32 0, i32 0
  store ptr %111, ptr %113, align 8
  %114 = load ptr, ptr %5, align 8
  %115 = getelementptr inbounds nuw %struct.SDL_Keyboard, ptr %114, i32 0, i32 0
  %116 = load ptr, ptr %115, align 8
  %117 = icmp ne ptr %116, null
  br i1 %117, label %118, label %151

118:                                              ; preds = %110
  %119 = load ptr, ptr %5, align 8
  %120 = getelementptr inbounds nuw %struct.SDL_Keyboard, ptr %119, i32 0, i32 0
  %121 = load ptr, ptr %120, align 8
  %122 = call zeroext i1 @SDL_SendWindowEvent(ptr noundef %121, i32 noundef 526, i32 noundef 0, i32 noundef 0)
  %123 = load ptr, ptr %5, align 8
  %124 = getelementptr inbounds nuw %struct.SDL_Keyboard, ptr %123, i32 0, i32 0
  %125 = load ptr, ptr %124, align 8
  %126 = call zeroext i1 @SDL_TextInputActive_REAL(ptr noundef %125)
  br i1 %126, label %127, label %150

127:                                              ; preds = %118
  %128 = load ptr, ptr %4, align 8
  %129 = icmp ne ptr %128, null
  br i1 %129, label %130, label %149

130:                                              ; preds = %127
  %131 = load ptr, ptr %4, align 8
  %132 = getelementptr inbounds nuw %struct.SDL_VideoDevice, ptr %131, i32 0, i32 74
  %133 = load ptr, ptr %132, align 8
  %134 = icmp ne ptr %133, null
  br i1 %134, label %135, label %149

135:                                              ; preds = %130
  %136 = load ptr, ptr %4, align 8
  %137 = getelementptr inbounds nuw %struct.SDL_VideoDevice, ptr %136, i32 0, i32 74
  %138 = load ptr, ptr %137, align 8
  %139 = load ptr, ptr %4, align 8
  %140 = load ptr, ptr %5, align 8
  %141 = getelementptr inbounds nuw %struct.SDL_Keyboard, ptr %140, i32 0, i32 0
  %142 = load ptr, ptr %141, align 8
  %143 = load ptr, ptr %5, align 8
  %144 = getelementptr inbounds nuw %struct.SDL_Keyboard, ptr %143, i32 0, i32 0
  %145 = load ptr, ptr %144, align 8
  %146 = getelementptr inbounds nuw %struct.SDL_Window, ptr %145, i32 0, i32 47
  %147 = load i32, ptr %146, align 4
  %148 = call zeroext i1 %138(ptr noundef %139, ptr noundef %142, i32 noundef %147)
  br label %149

149:                                              ; preds = %135, %130, %127
  br label %150

150:                                              ; preds = %149, %118
  br label %151

151:                                              ; preds = %150, %110
  call void @SDL_UpdateRelativeMouseMode()
  store i1 true, ptr %2, align 1
  store i32 1, ptr %7, align 4
  br label %152

152:                                              ; preds = %151, %23
  call void @llvm.lifetime.end.p0(i64 8, ptr %6) #6
  call void @llvm.lifetime.end.p0(i64 8, ptr %5) #6
  call void @llvm.lifetime.end.p0(i64 8, ptr %4) #6
  %153 = load i1, ptr %2, align 1
  ret i1 %153
}