; Function Attrs: nounwind uwtable
define hidden zeroext i1 @SDL_SetKeyboardFocus(ptr noundef %0) local_unnamed_addr #0 {
  %2 = tail call ptr @SDL_GetVideoDevice() #13
  %3 = tail call ptr @SDL_GetMouse() #13
  %.not53 = icmp eq ptr %0, null
  br i1 %.not53, label %12, label %4

4:                                                ; preds = %1
  %5 = tail call zeroext i1 @SDL_ObjectValid(ptr noundef nonnull %0, i32 noundef 1) #13
  br i1 %5, label %6, label %10

6:                                                ; preds = %4
  %7 = getelementptr inbounds nuw i8, ptr %0, i64 271
  %8 = load i8, ptr %7, align 1, !range !6, !noundef !7
  %9 = trunc nuw i8 %8 to i1
  br i1 %9, label %10, label %.thread

10:                                               ; preds = %6, %4
  %11 = tail call zeroext i1 (ptr, ...) @SDL_SetError_REAL(ptr noundef nonnull @.str.3) #13
  br label %72

12:                                               ; preds = %1
  %13 = load ptr, ptr @SDL_keyboard, align 8
  %14 = icmp eq ptr %13, null
  br i1 %14, label %.thread, label %.preheader

.preheader:                                       ; preds = %12, %21
  %indvars.iv.i = phi i64 [ %indvars.iv.next.i, %21 ], [ 0, %12 ]
  %15 = getelementptr inbounds nuw [512 x i8], ptr getelementptr inbounds nuw (i8, ptr @SDL_keyboard, i64 522), i64 0, i64 %indvars.iv.i
  %16 = load i8, ptr %15, align 1, !range !6, !noundef !7
  %17 = trunc nuw i8 %16 to i1
  br i1 %17, label %18, label %21

18:                                               ; preds = %.preheader
  %19 = trunc nuw nsw i64 %indvars.iv.i to i32
  %20 = tail call fastcc zeroext i1 @SDL_SendKeyboardKeyInternal(i64 noundef 0, i32 noundef 1, i32 noundef 0, i32 noundef 0, i32 noundef %19, i1 noundef zeroext false)
  br label %21

21:                                               ; preds = %18, %.preheader
  %indvars.iv.next.i = add nuw nsw i64 %indvars.iv.i, 1
  %exitcond.not.i = icmp eq i64 %indvars.iv.next.i, 512
  br i1 %exitcond.not.i, label %SDL_ResetKeyboard_REAL.exit, label %.preheader, !llvm.loop !8

SDL_ResetKeyboard_REAL.exit:                      ; preds = %21
  %22 = getelementptr inbounds nuw i8, ptr %3, i64 185
  %23 = load i8, ptr %22, align 1, !range !6, !noundef !7
  %24 = trunc nuw i8 %23 to i1
  br i1 %24, label %25, label %.thread

25:                                               ; preds = %SDL_ResetKeyboard_REAL.exit
  %26 = tail call zeroext i1 @SDL_SetRelativeMouseMode(i1 noundef zeroext false) #13
  %27 = load ptr, ptr @SDL_keyboard, align 8
  %28 = getelementptr inbounds nuw i8, ptr %27, i64 72
  %29 = load i64, ptr %28, align 8
  %30 = and i64 %29, 64
  %.not = icmp eq i64 %30, 0
  br i1 %.not, label %.thread, label %31

31:                                               ; preds = %25
  %32 = getelementptr inbounds nuw i8, ptr %27, i64 24
  %33 = load i32, ptr %32, align 8
  %34 = sitofp i32 %33 to float
  %35 = getelementptr inbounds nuw i8, ptr %3, i64 136
  %36 = load float, ptr %35, align 8
  %37 = fadd float %36, %34
  %38 = getelementptr inbounds nuw i8, ptr %27, i64 28
  %39 = load i32, ptr %38, align 4
  %40 = sitofp i32 %39 to float
  %41 = getelementptr inbounds nuw i8, ptr %3, i64 140
  %42 = load float, ptr %41, align 4
  %43 = fadd float %42, %40
  %44 = tail call zeroext i1 @SDL_WarpMouseGlobal_REAL(float noundef %37, float noundef %43) #13
  br label %.thread

.thread:                                          ; preds = %6, %25, %31, %SDL_ResetKeyboard_REAL.exit, %12
  %45 = load ptr, ptr @SDL_keyboard, align 8
  %.not47 = icmp eq ptr %45, null
  %.not48 = icmp eq ptr %45, %0
  %or.cond51 = or i1 %.not47, %.not48
  br i1 %or.cond51, label %57, label %46

46:                                               ; preds = %.thread
  %47 = tail call zeroext i1 @SDL_SendWindowEvent(ptr noundef nonnull %45, i32 noundef 527, i32 noundef 0, i32 noundef 0) #13
  %48 = load ptr, ptr @SDL_keyboard, align 8
  %49 = tail call zeroext i1 @SDL_TextInputActive_REAL(ptr noundef %48) #13
  %50 = icmp ne ptr %2, null
  %or.cond3 = select i1 %49, i1 %50, i1 false
  br i1 %or.cond3, label %51, label %57

51:                                               ; preds = %46
  %52 = getelementptr inbounds nuw i8, ptr %2, i64 600
  %53 = load ptr, ptr %52, align 8
  %.not49 = icmp eq ptr %53, null
  br i1 %.not49, label %57, label %54

54:                                               ; preds = %51
  %55 = load ptr, ptr @SDL_keyboard, align 8
  %56 = tail call zeroext i1 %53(ptr noundef nonnull %2, ptr noundef %55) #13
  br label %57

57:                                               ; preds = %46, %54, %51, %.thread
  store ptr %0, ptr @SDL_keyboard, align 8
  br i1 %.not53, label %71, label %58

58:                                               ; preds = %57
  %59 = tail call zeroext i1 @SDL_SendWindowEvent(ptr noundef nonnull %0, i32 noundef 526, i32 noundef 0, i32 noundef 0) #13
  %60 = load ptr, ptr @SDL_keyboard, align 8
  %61 = tail call zeroext i1 @SDL_TextInputActive_REAL(ptr noundef %60) #13
  %62 = icmp ne ptr %2, null
  %or.cond5 = select i1 %61, i1 %62, i1 false
  br i1 %or.cond5, label %63, label %71

63:                                               ; preds = %58
  %64 = getelementptr inbounds nuw i8, ptr %2, i64 592
  %65 = load ptr, ptr %64, align 8
  %.not50 = icmp eq ptr %65, null
  br i1 %.not50, label %71, label %66

66:                                               ; preds = %63
  %67 = load ptr, ptr @SDL_keyboard, align 8
  %68 = getelementptr inbounds nuw i8, ptr %67, i64 308
  %69 = load i32, ptr %68, align 4
  %70 = tail call zeroext i1 %65(ptr noundef nonnull %2, ptr noundef %67, i32 noundef %69) #13
  br label %71

71:                                               ; preds = %58, %66, %63, %57
  tail call void @SDL_UpdateRelativeMouseMode() #13
  br label %72

72:                                               ; preds = %71, %10
  %.0 = phi i1 [ %11, %10 ], [ true, %71 ]
  ret i1 %.0
}